; Function Attrs: mustprogress nounwind uwtable
define hidden void @_ZN18ClassHierarchyDCmd7executeE10DCmdSourceP10JavaThread(ptr nocapture noundef nonnull readonly align 8 dereferenceable(216) %0, i32 %1, ptr nocapture readnone %2) unnamed_addr #0 align 2 {
  %4 = alloca %class.VM_PrintClassHierarchy, align 8
  %5 = getelementptr inbounds i8, ptr %0, i64 8
  %6 = load ptr, ptr %5, align 8
  %7 = getelementptr inbounds i8, ptr %0, i64 91
  %8 = load i8, ptr %7, align 1
  %9 = getelementptr inbounds i8, ptr %0, i64 147
  %10 = load i8, ptr %9, align 1
  %11 = getelementptr inbounds i8, ptr %0, i64 208
  %12 = load ptr, ptr %11, align 8
  %13 = and i8 %8, 1
  %14 = and i8 %10, 1
  %15 = getelementptr inbounds i8, ptr %4, i64 8
  store ptr null, ptr %15, align 8
  store ptr getelementptr inbounds inrange(-16, 80) (i8, ptr @_ZTV22VM_PrintClassHierarchy, i64 16), ptr %4, align 8
  %16 = getelementptr inbounds i8, ptr %4, i64 16
  store ptr %6, ptr %16, align 8
  %17 = getelementptr inbounds i8, ptr %4, i64 24
  store i8 %13, ptr %17, align 8
  %18 = getelementptr inbounds i8, ptr %4, i64 25
  store i8 %14, ptr %18, align 1
  %19 = getelementptr inbounds i8, ptr %4, i64 32
  store ptr %12, ptr %19, align 8
  call void @_ZN8VMThread7executeEP12VM_Operation(ptr noundef nonnull %4) #17
  ret void
}